ARM GAS  C:\Users\Ade0n\AppData\Local\Temp\cc5A1eVy.s 			page 1


   1              		.syntax unified
   2              		.cpu cortex-m0
   3              		.fpu softvfp
   4              		.eabi_attribute 20, 1
   5              		.eabi_attribute 21, 1
   6              		.eabi_attribute 23, 3
   7              		.eabi_attribute 24, 1
   8              		.eabi_attribute 25, 1
   9              		.eabi_attribute 26, 1
  10              		.eabi_attribute 30, 1
  11              		.eabi_attribute 34, 0
  12              		.eabi_attribute 18, 4
  13              		.thumb
  14              		.syntax unified
  15              		.file	"main.c"
  16              		.text
  17              	.Ltext0:
  18              		.cfi_sections	.debug_frame
  19              		.section	.text.isr_100Hz,"ax",%progbits
  20              		.align	2
  21              		.global	isr_100Hz
  22              		.code	16
  23              		.thumb_func
  24              		.type	isr_100Hz, %function
  25              	isr_100Hz:
  26              	.LFB36:
  27              		.file 1 "main.c"
   1:main.c        **** /* ========================================
   2:main.c        ****  *
   3:main.c        ****  * Copyright YOUR COMPANY, THE YEAR
   4:main.c        ****  * All Rights Reserved
   5:main.c        ****  * UNPUBLISHED, LICENSED SOFTWARE.
   6:main.c        ****  *
   7:main.c        ****  * CONFIDENTIAL AND PROPRIETARY INFORMATION
   8:main.c        ****  * WHICH IS THE PROPERTY OF your company.
   9:main.c        ****  *
  10:main.c        ****  * ========================================
  11:main.c        **** */
  12:main.c        **** #include <project.h>
  13:main.c        **** #include <stdio.h>
  14:main.c        **** #include <string.h>
  15:main.c        **** 
  16:main.c        **** #define LED_ON  0
  17:main.c        **** #define LED_OFF 1
  18:main.c        **** 
  19:main.c        **** void out7seg(int);
  20:main.c        **** 
  21:main.c        **** uint16 indyk[4]         = {0x10FF,0x20FF,0x40FF,0x80FF};
  22:main.c        **** const uint8 KOD7[10]    = {0x03,0x9F,0x25,0x0D,0x99,0x49,0x41,0x1F,0x01,0x09};
  23:main.c        **** 
  24:main.c        **** CY_ISR(isr_100Hz)
  25:main.c        **** {
  28              		.loc 1 25 0
  29              		.cfi_startproc
  30              		@ args = 0, pretend = 0, frame = 0
  31              		@ frame_needed = 0, uses_anonymous_args = 0
  32 0000 10B5     		push	{r4, lr}
ARM GAS  C:\Users\Ade0n\AppData\Local\Temp\cc5A1eVy.s 			page 2


  33              		.cfi_def_cfa_offset 8
  34              		.cfi_offset 4, -8
  35              		.cfi_offset 14, -4
  26:main.c        ****     static uint8 N_indyk = 0u;
  27:main.c        ****     
  28:main.c        ****     SPIM_WriteTxData(indyk[N_indyk]);
  36              		.loc 1 28 0
  37 0002 064C     		ldr	r4, .L2
  38 0004 2378     		ldrb	r3, [r4]
  39 0006 5B00     		lsls	r3, r3, #1
  40 0008 054A     		ldr	r2, .L2+4
  41 000a 985A     		ldrh	r0, [r3, r2]
  42 000c FFF7FEFF 		bl	SPIM_WriteTxData
  43              	.LVL0:
  29:main.c        ****     
  30:main.c        ****     N_indyk++;
  44              		.loc 1 30 0
  45 0010 2378     		ldrb	r3, [r4]
  46 0012 0133     		adds	r3, r3, #1
  31:main.c        ****     N_indyk &= 3;    
  47              		.loc 1 31 0
  48 0014 0322     		movs	r2, #3
  49 0016 1340     		ands	r3, r2
  50 0018 2370     		strb	r3, [r4]
  32:main.c        **** }
  51              		.loc 1 32 0
  52              		@ sp needed
  53 001a 10BD     		pop	{r4, pc}
  54              	.L3:
  55              		.align	2
  56              	.L2:
  57 001c 00000000 		.word	.LANCHOR1
  58 0020 00000000 		.word	.LANCHOR0
  59              		.cfi_endproc
  60              	.LFE36:
  61              		.size	isr_100Hz, .-isr_100Hz
  62              		.global	__aeabi_idivmod
  63              		.global	__aeabi_idiv
  64              		.section	.text.out7seg,"ax",%progbits
  65              		.align	2
  66              		.global	out7seg
  67              		.code	16
  68              		.thumb_func
  69              		.type	out7seg, %function
  70              	out7seg:
  71              	.LFB37:
  33:main.c        **** 
  34:main.c        **** void out7seg(int data)
  35:main.c        **** {
  72              		.loc 1 35 0
  73              		.cfi_startproc
  74              		@ args = 0, pretend = 0, frame = 0
  75              		@ frame_needed = 0, uses_anonymous_args = 0
  76              	.LVL1:
  77 0000 F8B5     		push	{r3, r4, r5, r6, r7, lr}
  78              		.cfi_def_cfa_offset 24
  79              		.cfi_offset 3, -24
ARM GAS  C:\Users\Ade0n\AppData\Local\Temp\cc5A1eVy.s 			page 3


  80              		.cfi_offset 4, -20
  81              		.cfi_offset 5, -16
  82              		.cfi_offset 6, -12
  83              		.cfi_offset 7, -8
  84              		.cfi_offset 14, -4
  85 0002 4F46     		mov	r7, r9
  86 0004 4646     		mov	r6, r8
  87 0006 C0B4     		push	{r6, r7}
  88              		.cfi_def_cfa_offset 32
  89              		.cfi_offset 8, -32
  90              		.cfi_offset 9, -28
  91 0008 071E     		subs	r7, r0, #0
  36:main.c        ****     uint8 flag;
  37:main.c        ****     if (data >= 0) {
  92              		.loc 1 37 0
  93 000a 02DB     		blt	.L13
  38:main.c        ****         flag = 0;
  94              		.loc 1 38 0
  95 000c 0023     		movs	r3, #0
  96 000e 9846     		mov	r8, r3
  97 0010 01E0     		b	.L5
  98              	.L13:
  39:main.c        ****     } else {
  40:main.c        ****         flag = 1;
  99              		.loc 1 40 0
 100 0012 0123     		movs	r3, #1
 101 0014 9846     		mov	r8, r3
 102              	.L5:
 103              	.LVL2:
  41:main.c        ****     }
  42:main.c        ****     
  43:main.c        ****     uint8 i;
  44:main.c        ****     if (flag) {
 104              		.loc 1 44 0
 105 0016 4346     		mov	r3, r8
 106 0018 002B     		cmp	r3, #0
 107 001a 00D0     		beq	.L6
  45:main.c        ****         data = ~data + 1;
 108              		.loc 1 45 0
 109 001c 7F42     		rsbs	r7, r7, #0
 110              	.LVL3:
 111              	.L6:
  40:main.c        ****     }
 112              		.loc 1 40 0 discriminator 1
 113 001e 0024     		movs	r4, #0
 114 0020 18E0     		b	.L7
 115              	.LVL4:
 116              	.L9:
  46:main.c        ****     }
  47:main.c        ****     
  48:main.c        ****     for (i = 0; i < 4; i++)
  49:main.c        ****     {
  50:main.c        ****         indyk[i] &= 0xFF00;
 117              		.loc 1 50 0
 118 0022 1C4D     		ldr	r5, .L14
 119 0024 6300     		lsls	r3, r4, #1
 120 0026 9946     		mov	r9, r3
ARM GAS  C:\Users\Ade0n\AppData\Local\Temp\cc5A1eVy.s 			page 4


 121 0028 5E5B     		ldrh	r6, [r3, r5]
 122 002a FF23     		movs	r3, #255
 123 002c 9E43     		bics	r6, r3
 124 002e 4B46     		mov	r3, r9
 125 0030 5E53     		strh	r6, [r3, r5]
  51:main.c        ****         // виводимо цифри числа попорядку
  52:main.c        ****         indyk[i] |= (uint16)KOD7[data % 10];
 126              		.loc 1 52 0
 127 0032 0A21     		movs	r1, #10
 128 0034 3800     		movs	r0, r7
 129 0036 FFF7FEFF 		bl	__aeabi_idivmod
 130              	.LVL5:
 131 003a 174B     		ldr	r3, .L14+4
 132 003c 5B5C     		ldrb	r3, [r3, r1]
 133 003e 1E43     		orrs	r6, r3
 134 0040 4B46     		mov	r3, r9
 135 0042 5E53     		strh	r6, [r3, r5]
  53:main.c        ****         data /= 10;
 136              		.loc 1 53 0
 137 0044 0A21     		movs	r1, #10
 138 0046 3800     		movs	r0, r7
 139 0048 FFF7FEFF 		bl	__aeabi_idiv
 140              	.LVL6:
 141 004c 071E     		subs	r7, r0, #0
 142              	.LVL7:
  54:main.c        ****         if (data == 0) break;
 143              		.loc 1 54 0
 144 004e 03D0     		beq	.L8
  48:main.c        ****     {
 145              		.loc 1 48 0 discriminator 2
 146 0050 0134     		adds	r4, r4, #1
 147              	.LVL8:
 148 0052 E4B2     		uxtb	r4, r4
 149              	.LVL9:
 150              	.L7:
  48:main.c        ****     {
 151              		.loc 1 48 0 is_stmt 0 discriminator 1
 152 0054 032C     		cmp	r4, #3
 153 0056 E4D9     		bls	.L9
 154              	.L8:
  55:main.c        ****     }
  56:main.c        ****     
  57:main.c        ****     uint8 minus_pos = i + 1;
 155              		.loc 1 57 0 is_stmt 1
 156 0058 0134     		adds	r4, r4, #1
 157              	.LVL10:
 158 005a E4B2     		uxtb	r4, r4
 159              	.LVL11:
  58:main.c        ****     
  59:main.c        ****     for (i++; i < 4; i++)
 160              		.loc 1 59 0
 161 005c 2300     		movs	r3, r4
 162 005e 07E0     		b	.L10
 163              	.LVL12:
 164              	.L11:
  60:main.c        ****     {
  61:main.c        ****         indyk[i] |= 0x00FF;
ARM GAS  C:\Users\Ade0n\AppData\Local\Temp\cc5A1eVy.s 			page 5


 165              		.loc 1 61 0 discriminator 3
 166 0060 0C49     		ldr	r1, .L14
 167 0062 5800     		lsls	r0, r3, #1
 168 0064 465A     		ldrh	r6, [r0, r1]
 169 0066 FF22     		movs	r2, #255
 170 0068 3243     		orrs	r2, r6
 171 006a 4252     		strh	r2, [r0, r1]
  59:main.c        ****     {
 172              		.loc 1 59 0 discriminator 3
 173 006c 0133     		adds	r3, r3, #1
 174              	.LVL13:
 175 006e DBB2     		uxtb	r3, r3
 176              	.LVL14:
 177              	.L10:
  59:main.c        ****     {
 178              		.loc 1 59 0 is_stmt 0 discriminator 1
 179 0070 032B     		cmp	r3, #3
 180 0072 F5D9     		bls	.L11
  62:main.c        ****     }
  63:main.c        ****     if (flag) {
 181              		.loc 1 63 0 is_stmt 1
 182 0074 4346     		mov	r3, r8
 183              	.LVL15:
 184 0076 002B     		cmp	r3, #0
 185 0078 07D0     		beq	.L4
  64:main.c        ****         indyk[minus_pos] &= 0xFF00;
 186              		.loc 1 64 0
 187 007a 0649     		ldr	r1, .L14
 188 007c 6400     		lsls	r4, r4, #1
 189              	.LVL16:
 190 007e 635A     		ldrh	r3, [r4, r1]
 191 0080 FF22     		movs	r2, #255
 192 0082 9343     		bics	r3, r2
  65:main.c        ****         indyk[minus_pos] |= (uint16)0xFD;
 193              		.loc 1 65 0
 194 0084 FD22     		movs	r2, #253
 195 0086 1343     		orrs	r3, r2
 196 0088 6352     		strh	r3, [r4, r1]
 197              	.L4:
  66:main.c        ****     }
  67:main.c        **** }
 198              		.loc 1 67 0
 199              		@ sp needed
 200              	.LVL17:
 201              	.LVL18:
 202 008a 0CBC     		pop	{r2, r3}
 203 008c 9046     		mov	r8, r2
 204 008e 9946     		mov	r9, r3
 205 0090 F8BD     		pop	{r3, r4, r5, r6, r7, pc}
 206              	.L15:
 207 0092 C046     		.align	2
 208              	.L14:
 209 0094 00000000 		.word	.LANCHOR0
 210 0098 00000000 		.word	.LANCHOR2
 211              		.cfi_endproc
 212              	.LFE37:
 213              		.size	out7seg, .-out7seg
ARM GAS  C:\Users\Ade0n\AppData\Local\Temp\cc5A1eVy.s 			page 6


 214              		.section	.text.main,"ax",%progbits
 215              		.align	2
 216              		.global	main
 217              		.code	16
 218              		.thumb_func
 219              		.type	main, %function
 220              	main:
 221              	.LFB38:
  68:main.c        **** 
  69:main.c        **** int main()
  70:main.c        **** {
 222              		.loc 1 70 0
 223              		.cfi_startproc
 224              		@ args = 0, pretend = 0, frame = 16
 225              		@ frame_needed = 0, uses_anonymous_args = 0
 226 0000 10B5     		push	{r4, lr}
 227              		.cfi_def_cfa_offset 8
 228              		.cfi_offset 4, -8
 229              		.cfi_offset 14, -4
 230 0002 84B0     		sub	sp, sp, #16
 231              		.cfi_def_cfa_offset 24
  71:main.c        ****     char ch;
  72:main.c        ****     
  73:main.c        ****     char data[5];
  74:main.c        ****     char end_char = '\0';
 232              		.loc 1 74 0
 233 0004 0022     		movs	r2, #0
 234 0006 6B46     		mov	r3, sp
 235 0008 DA71     		strb	r2, [r3, #7]
  75:main.c        ****     int num_data;
  76:main.c        **** 
  77:main.c        ****     CyGlobalIntEnable;
 236              		.loc 1 77 0
 237              		.syntax divided
 238              	@ 77 "main.c" 1
 239 000a 62B6     		CPSIE   i
 240              	@ 0 "" 2
  78:main.c        **** 
  79:main.c        ****     Pin_D1_Write(LED_OFF);
 241              		.loc 1 79 0
 242              		.thumb
 243              		.syntax unified
 244 000c 0120     		movs	r0, #1
 245 000e FFF7FEFF 		bl	Pin_D1_Write
 246              	.LVL19:
  80:main.c        ****     Pin_D2_Write(LED_OFF);
 247              		.loc 1 80 0
 248 0012 0120     		movs	r0, #1
 249 0014 FFF7FEFF 		bl	Pin_D2_Write
 250              	.LVL20:
  81:main.c        ****     Pin_D3_Write(LED_OFF);
 251              		.loc 1 81 0
 252 0018 0120     		movs	r0, #1
 253 001a FFF7FEFF 		bl	Pin_D3_Write
 254              	.LVL21:
  82:main.c        ****     Pin_D4_Write(LED_OFF);
 255              		.loc 1 82 0
ARM GAS  C:\Users\Ade0n\AppData\Local\Temp\cc5A1eVy.s 			page 7


 256 001e 0120     		movs	r0, #1
 257 0020 FFF7FEFF 		bl	Pin_D4_Write
 258              	.LVL22:
  83:main.c        ****                     
  84:main.c        ****     /* Start SCB UART TX+RX operation */    
  85:main.c        ****     UART_Start(); 
 259              		.loc 1 85 0
 260 0024 FFF7FEFF 		bl	UART_Start
 261              	.LVL23:
  86:main.c        ****     SPIM_Start();
 262              		.loc 1 86 0
 263 0028 FFF7FEFF 		bl	SPIM_Start
 264              	.LVL24:
  87:main.c        ****     isr_100Hz_StartEx(isr_100Hz);
 265              		.loc 1 87 0
 266 002c 1D48     		ldr	r0, .L21
 267 002e FFF7FEFF 		bl	isr_100Hz_StartEx
 268              	.LVL25:
  88:main.c        ****     
  89:main.c        ****     CyDelay(1000);
 269              		.loc 1 89 0
 270 0032 FA20     		movs	r0, #250
 271 0034 8000     		lsls	r0, r0, #2
 272 0036 FFF7FEFF 		bl	CyDelay
 273              	.LVL26:
  90:main.c        ****     
  91:main.c        **** 	UART_UartPutString("LAB 3.2 \r\n");
 274              		.loc 1 91 0
 275 003a 1B48     		ldr	r0, .L21+4
 276 003c FFF7FEFF 		bl	UART_UartPutString
 277              	.LVL27:
 278              	.L17:
  92:main.c        ****     
  93:main.c        ****     for(;;)
  94:main.c        ****     {   
  95:main.c        ****         // Clear the buffer
  96:main.c        ****         memset(data, 0, sizeof data);
 279              		.loc 1 96 0
 280 0040 0522     		movs	r2, #5
 281 0042 0021     		movs	r1, #0
 282 0044 02A8     		add	r0, sp, #8
 283 0046 FFF7FEFF 		bl	memset
 284              	.LVL28:
  97:main.c        ****         ch = UART_UartGetChar();
 285              		.loc 1 97 0
 286 004a FFF7FEFF 		bl	UART_UartGetChar
 287              	.LVL29:
 288 004e 0F23     		movs	r3, #15
 289 0050 6B44     		add	r3, r3, sp
 290 0052 1870     		strb	r0, [r3]
  98:main.c        ****         
  99:main.c        ****         while(ch != '\r') {
 291              		.loc 1 99 0
 292 0054 0CE0     		b	.L18
 293              	.L19:
 100:main.c        ****             UART_UartPutChar(ch);
 294              		.loc 1 100 0
ARM GAS  C:\Users\Ade0n\AppData\Local\Temp\cc5A1eVy.s 			page 8


 295 0056 2000     		movs	r0, r4
 296 0058 FFF7FEFF 		bl	UART_SpiUartWriteTxData
 297              	.LVL30:
 101:main.c        ****             strncat(data, &ch, 1);
 298              		.loc 1 101 0
 299 005c 0F24     		movs	r4, #15
 300 005e 6C44     		add	r4, r4, sp
 301 0060 0122     		movs	r2, #1
 302 0062 2100     		movs	r1, r4
 303 0064 02A8     		add	r0, sp, #8
 304 0066 FFF7FEFF 		bl	strncat
 305              	.LVL31:
 102:main.c        ****             ch = UART_UartGetChar();
 306              		.loc 1 102 0
 307 006a FFF7FEFF 		bl	UART_UartGetChar
 308              	.LVL32:
 309 006e 2070     		strb	r0, [r4]
 310              	.L18:
  99:main.c        ****             UART_UartPutChar(ch);
 311              		.loc 1 99 0
 312 0070 0F23     		movs	r3, #15
 313 0072 6B44     		add	r3, r3, sp
 314 0074 1C78     		ldrb	r4, [r3]
 315 0076 0D2C     		cmp	r4, #13
 316 0078 EDD1     		bne	.L19
 103:main.c        ****             
 104:main.c        ****         }
 105:main.c        ****         strncat(data, &end_char, 1);
 317              		.loc 1 105 0
 318 007a 0122     		movs	r2, #1
 319 007c 6B46     		mov	r3, sp
 320 007e D91D     		adds	r1, r3, #7
 321 0080 02A8     		add	r0, sp, #8
 322 0082 FFF7FEFF 		bl	strncat
 323              	.LVL33:
 106:main.c        ****         
 107:main.c        ****         if (ch==0) continue;
 324              		.loc 1 107 0
 325 0086 002C     		cmp	r4, #0
 326 0088 DAD0     		beq	.L17
 108:main.c        ****         
 109:main.c        ****         sscanf(data, "%d", &num_data);
 327              		.loc 1 109 0
 328 008a 6A46     		mov	r2, sp
 329 008c 0749     		ldr	r1, .L21+8
 330 008e 02A8     		add	r0, sp, #8
 331 0090 FFF7FEFF 		bl	sscanf
 332              	.LVL34:
 110:main.c        ****         out7seg(num_data);
 333              		.loc 1 110 0
 334 0094 0098     		ldr	r0, [sp]
 335 0096 FFF7FEFF 		bl	out7seg
 336              	.LVL35:
 111:main.c        ****         
 112:main.c        ****         UART_UartPutString("\r\n");
 337              		.loc 1 112 0
 338 009a 0548     		ldr	r0, .L21+12
ARM GAS  C:\Users\Ade0n\AppData\Local\Temp\cc5A1eVy.s 			page 9


 339 009c FFF7FEFF 		bl	UART_UartPutString
 340              	.LVL36:
 341 00a0 CEE7     		b	.L17
 342              	.L22:
 343 00a2 C046     		.align	2
 344              	.L21:
 345 00a4 00000000 		.word	isr_100Hz
 346 00a8 00000000 		.word	.LC5
 347 00ac 0C000000 		.word	.LC7
 348 00b0 10000000 		.word	.LC9
 349              		.cfi_endproc
 350              	.LFE38:
 351              		.size	main, .-main
 352              		.global	KOD7
 353              		.global	indyk
 354              		.section	.rodata
 355              		.align	2
 356              		.set	.LANCHOR2,. + 0
 357              		.type	KOD7, %object
 358              		.size	KOD7, 10
 359              	KOD7:
 360 0000 03       		.byte	3
 361 0001 9F       		.byte	-97
 362 0002 25       		.byte	37
 363 0003 0D       		.byte	13
 364 0004 99       		.byte	-103
 365 0005 49       		.byte	73
 366 0006 41       		.byte	65
 367 0007 1F       		.byte	31
 368 0008 01       		.byte	1
 369 0009 09       		.byte	9
 370              		.data
 371              		.align	2
 372              		.set	.LANCHOR0,. + 0
 373              		.type	indyk, %object
 374              		.size	indyk, 8
 375              	indyk:
 376 0000 FF10     		.short	4351
 377 0002 FF20     		.short	8447
 378 0004 FF40     		.short	16639
 379 0006 FF80     		.short	-32513
 380              		.section	.rodata.str1.4,"aMS",%progbits,1
 381              		.align	2
 382              	.LC5:
 383 0000 4C414220 		.ascii	"LAB 3.2 \015\012\000"
 383      332E3220 
 383      0D0A00
 384 000b 00       		.space	1
 385              	.LC7:
 386 000c 256400   		.ascii	"%d\000"
 387 000f 00       		.space	1
 388              	.LC9:
 389 0010 0D0A00   		.ascii	"\015\012\000"
 390              		.bss
 391              		.set	.LANCHOR1,. + 0
 392              		.type	N_indyk.6516, %object
 393              		.size	N_indyk.6516, 1
ARM GAS  C:\Users\Ade0n\AppData\Local\Temp\cc5A1eVy.s 			page 10


 394              	N_indyk.6516:
 395 0000 00       		.space	1
 396              		.text
 397              	.Letext0:
 398              		.file 2 "Generated_Source\\PSoC4/cytypes.h"
 399              		.file 3 "Generated_Source\\PSoC4/SPIM.h"
 400              		.file 4 "Generated_Source\\PSoC4/Pin_D1.h"
 401              		.file 5 "Generated_Source\\PSoC4/Pin_D2.h"
 402              		.file 6 "Generated_Source\\PSoC4/Pin_D3.h"
 403              		.file 7 "Generated_Source\\PSoC4/Pin_D4.h"
 404              		.file 8 "Generated_Source\\PSoC4/UART.h"
 405              		.file 9 "Generated_Source\\PSoC4/isr_100Hz.h"
 406              		.file 10 "Generated_Source\\PSoC4/CyLib.h"
 407              		.file 11 "Generated_Source\\PSoC4/UART_SPI_UART.h"
 408              		.file 12 "c:\\program files (x86)\\cypress\\psoc creator\\4.4\\psoc creator\\import\\gnu\\arm\\5.4
 409              		.file 13 "c:\\program files (x86)\\cypress\\psoc creator\\4.4\\psoc creator\\import\\gnu\\arm\\5.4