ARM GAS  C:\Users\Ade0n\AppData\Local\Temp\ccajiy8j.s 			page 1


   1              		.syntax unified
   2              		.cpu cortex-m0
   3              		.fpu softvfp
   4              		.eabi_attribute 20, 1
   5              		.eabi_attribute 21, 1
   6              		.eabi_attribute 23, 3
   7              		.eabi_attribute 24, 1
   8              		.eabi_attribute 25, 1
   9              		.eabi_attribute 26, 1
  10              		.eabi_attribute 30, 1
  11              		.eabi_attribute 34, 0
  12              		.eabi_attribute 18, 4
  13              		.thumb
  14              		.syntax unified
  15              		.file	"main.c"
  16              		.text
  17              	.Ltext0:
  18              		.cfi_sections	.debug_frame
  19              		.section	.text.isr_100Hz,"ax",%progbits
  20              		.align	2
  21              		.global	isr_100Hz
  22              		.code	16
  23              		.thumb_func
  24              		.type	isr_100Hz, %function
  25              	isr_100Hz:
  26              	.LFB36:
  27              		.file 1 "main.c"
   1:main.c        **** /* ========================================
   2:main.c        ****  *
   3:main.c        ****  * Copyright YOUR COMPANY, THE YEAR
   4:main.c        ****  * All Rights Reserved
   5:main.c        ****  * UNPUBLISHED, LICENSED SOFTWARE.
   6:main.c        ****  *
   7:main.c        ****  * CONFIDENTIAL AND PROPRIETARY INFORMATION
   8:main.c        ****  * WHICH IS THE PROPERTY OF your company.
   9:main.c        ****  *
  10:main.c        ****  * ========================================
  11:main.c        **** */
  12:main.c        **** #include <project.h>
  13:main.c        **** #include <stdio.h>
  14:main.c        **** #include <string.h>
  15:main.c        **** 
  16:main.c        **** #define LED_ON  0
  17:main.c        **** #define LED_OFF 1
  18:main.c        **** 
  19:main.c        **** void out7seg(int16, uint8);
  20:main.c        **** 
  21:main.c        **** uint16 indyk[4]         = {0x10FF,0x20FF,0x40FF,0x80FF};
  22:main.c        **** const uint8 KOD7[10]    = {0x03,0x9F,0x25,0x0D,0x99,0x49,0x41,0x1F,0x01,0x09};
  23:main.c        **** 
  24:main.c        **** CY_ISR(isr_100Hz)
  25:main.c        **** {
  28              		.loc 1 25 0
  29              		.cfi_startproc
  30              		@ args = 0, pretend = 0, frame = 0
  31              		@ frame_needed = 0, uses_anonymous_args = 0
  32 0000 10B5     		push	{r4, lr}
ARM GAS  C:\Users\Ade0n\AppData\Local\Temp\ccajiy8j.s 			page 2


  33              		.cfi_def_cfa_offset 8
  34              		.cfi_offset 4, -8
  35              		.cfi_offset 14, -4
  26:main.c        ****     static uint8 N_indyk = 0u;
  27:main.c        ****     
  28:main.c        ****     SPIM_WriteTxData(indyk[N_indyk]);
  36              		.loc 1 28 0
  37 0002 064C     		ldr	r4, .L2
  38 0004 2378     		ldrb	r3, [r4]
  39 0006 5B00     		lsls	r3, r3, #1
  40 0008 054A     		ldr	r2, .L2+4
  41 000a 985A     		ldrh	r0, [r3, r2]
  42 000c FFF7FEFF 		bl	SPIM_WriteTxData
  43              	.LVL0:
  29:main.c        ****     
  30:main.c        ****     N_indyk++;
  44              		.loc 1 30 0
  45 0010 2378     		ldrb	r3, [r4]
  46 0012 0133     		adds	r3, r3, #1
  31:main.c        ****     N_indyk &= 3;    
  47              		.loc 1 31 0
  48 0014 0322     		movs	r2, #3
  49 0016 1340     		ands	r3, r2
  50 0018 2370     		strb	r3, [r4]
  32:main.c        **** }
  51              		.loc 1 32 0
  52              		@ sp needed
  53 001a 10BD     		pop	{r4, pc}
  54              	.L3:
  55              		.align	2
  56              	.L2:
  57 001c 00000000 		.word	.LANCHOR1
  58 0020 00000000 		.word	.LANCHOR0
  59              		.cfi_endproc
  60              	.LFE36:
  61              		.size	isr_100Hz, .-isr_100Hz
  62              		.global	__aeabi_idivmod
  63              		.global	__aeabi_idiv
  64              		.section	.text.out7seg,"ax",%progbits
  65              		.align	2
  66              		.global	out7seg
  67              		.code	16
  68              		.thumb_func
  69              		.type	out7seg, %function
  70              	out7seg:
  71              	.LFB37:
  33:main.c        **** 
  34:main.c        **** void out7seg(int16 data, uint8 comma_pos)
  35:main.c        **** {
  72              		.loc 1 35 0
  73              		.cfi_startproc
  74              		@ args = 0, pretend = 0, frame = 0
  75              		@ frame_needed = 0, uses_anonymous_args = 0
  76              	.LVL1:
  77 0000 F0B5     		push	{r4, r5, r6, r7, lr}
  78              		.cfi_def_cfa_offset 20
  79              		.cfi_offset 4, -20
ARM GAS  C:\Users\Ade0n\AppData\Local\Temp\ccajiy8j.s 			page 3


  80              		.cfi_offset 5, -16
  81              		.cfi_offset 6, -12
  82              		.cfi_offset 7, -8
  83              		.cfi_offset 14, -4
  84 0002 5746     		mov	r7, r10
  85 0004 4E46     		mov	r6, r9
  86 0006 4546     		mov	r5, r8
  87 0008 E0B4     		push	{r5, r6, r7}
  88              		.cfi_def_cfa_offset 32
  89              		.cfi_offset 8, -32
  90              		.cfi_offset 9, -28
  91              		.cfi_offset 10, -24
  92 000a 071E     		subs	r7, r0, #0
  93 000c 8946     		mov	r9, r1
  36:main.c        ****     uint8 flag;
  37:main.c        ****     if (data >= 0) {
  94              		.loc 1 37 0
  95 000e 02DB     		blt	.L14
  38:main.c        ****         flag = 0;
  96              		.loc 1 38 0
  97 0010 0023     		movs	r3, #0
  98 0012 9A46     		mov	r10, r3
  99 0014 01E0     		b	.L5
 100              	.L14:
  39:main.c        ****     } else {
  40:main.c        ****         flag = 1;
 101              		.loc 1 40 0
 102 0016 0123     		movs	r3, #1
 103 0018 9A46     		mov	r10, r3
 104              	.L5:
 105              	.LVL2:
  41:main.c        ****     }
  42:main.c        ****     
  43:main.c        ****     uint8 i;
  44:main.c        ****     if (flag) {
 106              		.loc 1 44 0
 107 001a 5346     		mov	r3, r10
 108 001c 002B     		cmp	r3, #0
 109 001e 01D0     		beq	.L6
  45:main.c        ****         data = ~data + 1;
 110              		.loc 1 45 0
 111 0020 7F42     		rsbs	r7, r7, #0
 112 0022 3FB2     		sxth	r7, r7
 113              	.LVL3:
 114              	.L6:
  40:main.c        ****     }
 115              		.loc 1 40 0 discriminator 1
 116 0024 0026     		movs	r6, #0
 117 0026 19E0     		b	.L7
 118              	.LVL4:
 119              	.L9:
  46:main.c        ****     }
  47:main.c        ****     
  48:main.c        ****     for (i = 0; i < 4; i++)
  49:main.c        ****     {
  50:main.c        ****         indyk[i] &= 0xFF00;
 120              		.loc 1 50 0
ARM GAS  C:\Users\Ade0n\AppData\Local\Temp\ccajiy8j.s 			page 4


 121 0028 294C     		ldr	r4, .L15
 122 002a 7500     		lsls	r5, r6, #1
 123 002c 2B5B     		ldrh	r3, [r5, r4]
 124 002e FF22     		movs	r2, #255
 125 0030 9343     		bics	r3, r2
 126 0032 9846     		mov	r8, r3
 127 0034 2B53     		strh	r3, [r5, r4]
  51:main.c        ****         // виводимо цифри числа попорядку
  52:main.c        ****         indyk[i] |= (uint16)KOD7[data % 10];
 128              		.loc 1 52 0
 129 0036 0A21     		movs	r1, #10
 130 0038 3800     		movs	r0, r7
 131 003a FFF7FEFF 		bl	__aeabi_idivmod
 132              	.LVL5:
 133 003e 09B2     		sxth	r1, r1
 134 0040 244B     		ldr	r3, .L15+4
 135 0042 5B5C     		ldrb	r3, [r3, r1]
 136 0044 4246     		mov	r2, r8
 137 0046 1343     		orrs	r3, r2
 138 0048 2B53     		strh	r3, [r5, r4]
  53:main.c        ****         data /= 10;
 139              		.loc 1 53 0
 140 004a 0A21     		movs	r1, #10
 141 004c 3800     		movs	r0, r7
 142 004e FFF7FEFF 		bl	__aeabi_idiv
 143              	.LVL6:
 144 0052 07B2     		sxth	r7, r0
 145              	.LVL7:
  54:main.c        ****         if (data == 0) break;
 146              		.loc 1 54 0
 147 0054 002F     		cmp	r7, #0
 148 0056 03D0     		beq	.L8
  48:main.c        ****     {
 149              		.loc 1 48 0 discriminator 2
 150 0058 0136     		adds	r6, r6, #1
 151              	.LVL8:
 152 005a F6B2     		uxtb	r6, r6
 153              	.LVL9:
 154              	.L7:
  48:main.c        ****     {
 155              		.loc 1 48 0 is_stmt 0 discriminator 1
 156 005c 032E     		cmp	r6, #3
 157 005e E3D9     		bls	.L9
 158              	.L8:
  55:main.c        ****     }
  56:main.c        ****     uint8 minus_pos = i + 1;
 159              		.loc 1 56 0 is_stmt 1
 160 0060 0136     		adds	r6, r6, #1
 161              	.LVL10:
 162 0062 F6B2     		uxtb	r6, r6
 163              	.LVL11:
  57:main.c        ****     
  58:main.c        ****     for (i++; i < 4; i++)
 164              		.loc 1 58 0
 165 0064 3300     		movs	r3, r6
 166 0066 07E0     		b	.L10
 167              	.LVL12:
ARM GAS  C:\Users\Ade0n\AppData\Local\Temp\ccajiy8j.s 			page 5


 168              	.L11:
  59:main.c        ****     {
  60:main.c        ****         indyk[i] |= 0x00FF;
 169              		.loc 1 60 0 discriminator 3
 170 0068 1949     		ldr	r1, .L15
 171 006a 5800     		lsls	r0, r3, #1
 172 006c 475A     		ldrh	r7, [r0, r1]
 173 006e FF22     		movs	r2, #255
 174 0070 3A43     		orrs	r2, r7
 175 0072 4252     		strh	r2, [r0, r1]
  58:main.c        ****     {
 176              		.loc 1 58 0 discriminator 3
 177 0074 0133     		adds	r3, r3, #1
 178              	.LVL13:
 179 0076 DBB2     		uxtb	r3, r3
 180              	.LVL14:
 181              	.L10:
  58:main.c        ****     {
 182              		.loc 1 58 0 is_stmt 0 discriminator 1
 183 0078 032B     		cmp	r3, #3
 184 007a F5D9     		bls	.L11
  61:main.c        ****     }
  62:main.c        ****     if (flag) {
 185              		.loc 1 62 0 is_stmt 1
 186 007c 5346     		mov	r3, r10
 187              	.LVL15:
 188 007e 002B     		cmp	r3, #0
 189 0080 14D0     		beq	.L12
  63:main.c        ****         indyk[minus_pos] &= 0xFF00;
 190              		.loc 1 63 0
 191 0082 1349     		ldr	r1, .L15
 192 0084 7600     		lsls	r6, r6, #1
 193              	.LVL16:
 194 0086 735A     		ldrh	r3, [r6, r1]
 195 0088 FF22     		movs	r2, #255
 196 008a 9343     		bics	r3, r2
  64:main.c        ****         indyk[minus_pos] |= (uint16)0xFD;
 197              		.loc 1 64 0
 198 008c FD22     		movs	r2, #253
 199 008e 1343     		orrs	r3, r2
 200 0090 7352     		strh	r3, [r6, r1]
  65:main.c        ****         if (comma_pos < 3 && comma_pos > 0) {
 201              		.loc 1 65 0
 202 0092 4B46     		mov	r3, r9
 203 0094 013B     		subs	r3, r3, #1
 204 0096 DBB2     		uxtb	r3, r3
 205 0098 012B     		cmp	r3, #1
 206 009a 13D8     		bhi	.L4
  66:main.c        ****             indyk[comma_pos] ^= (-0 ^ indyk[comma_pos]) & (1UL << 0);
 207              		.loc 1 66 0
 208 009c 0A00     		movs	r2, r1
 209 009e 4B46     		mov	r3, r9
 210 00a0 5C00     		lsls	r4, r3, #1
 211 00a2 635A     		ldrh	r3, [r4, r1]
 212 00a4 0121     		movs	r1, #1
 213 00a6 8B43     		bics	r3, r1
 214 00a8 A352     		strh	r3, [r4, r2]
ARM GAS  C:\Users\Ade0n\AppData\Local\Temp\ccajiy8j.s 			page 6


 215 00aa 0BE0     		b	.L4
 216              	.LVL17:
 217              	.L12:
  67:main.c        ****         }
  68:main.c        ****     } else {
  69:main.c        ****         if (comma_pos < 4 && comma_pos > 0) {
 218              		.loc 1 69 0
 219 00ac 4B46     		mov	r3, r9
 220 00ae 013B     		subs	r3, r3, #1
 221 00b0 DBB2     		uxtb	r3, r3
 222 00b2 022B     		cmp	r3, #2
 223 00b4 06D8     		bhi	.L4
  70:main.c        ****             indyk[comma_pos] ^= (-0 ^ indyk[comma_pos]) & (1UL << 0);
 224              		.loc 1 70 0
 225 00b6 064A     		ldr	r2, .L15
 226 00b8 4B46     		mov	r3, r9
 227 00ba 5C00     		lsls	r4, r3, #1
 228 00bc A35A     		ldrh	r3, [r4, r2]
 229 00be 0121     		movs	r1, #1
 230 00c0 8B43     		bics	r3, r1
 231 00c2 A352     		strh	r3, [r4, r2]
 232              	.LVL18:
 233              	.L4:
  71:main.c        ****         }
  72:main.c        ****     }
  73:main.c        ****     
  74:main.c        **** }
 234              		.loc 1 74 0
 235              		@ sp needed
 236              	.LVL19:
 237 00c4 1CBC     		pop	{r2, r3, r4}
 238 00c6 9046     		mov	r8, r2
 239 00c8 9946     		mov	r9, r3
 240 00ca A246     		mov	r10, r4
 241 00cc F0BD     		pop	{r4, r5, r6, r7, pc}
 242              	.L16:
 243 00ce C046     		.align	2
 244              	.L15:
 245 00d0 00000000 		.word	.LANCHOR0
 246 00d4 00000000 		.word	.LANCHOR2
 247              		.cfi_endproc
 248              	.LFE37:
 249              		.size	out7seg, .-out7seg
 250              		.section	.text.main,"ax",%progbits
 251              		.align	2
 252              		.global	main
 253              		.code	16
 254              		.thumb_func
 255              		.type	main, %function
 256              	main:
 257              	.LFB38:
  75:main.c        **** 
  76:main.c        **** int main()
  77:main.c        **** {
 258              		.loc 1 77 0
 259              		.cfi_startproc
 260              		@ args = 0, pretend = 0, frame = 16
ARM GAS  C:\Users\Ade0n\AppData\Local\Temp\ccajiy8j.s 			page 7


 261              		@ frame_needed = 0, uses_anonymous_args = 0
 262 0000 70B5     		push	{r4, r5, r6, lr}
 263              		.cfi_def_cfa_offset 16
 264              		.cfi_offset 4, -16
 265              		.cfi_offset 5, -12
 266              		.cfi_offset 6, -8
 267              		.cfi_offset 14, -4
 268 0002 84B0     		sub	sp, sp, #16
 269              		.cfi_def_cfa_offset 32
  78:main.c        ****     char ch;
  79:main.c        ****     
  80:main.c        ****     char data[6];
  81:main.c        ****     char end_char = '\0';
 270              		.loc 1 81 0
 271 0004 0022     		movs	r2, #0
 272 0006 6B46     		mov	r3, sp
 273 0008 DA71     		strb	r2, [r3, #7]
  82:main.c        ****     int num_data;
  83:main.c        ****     int8 decimals_after_comma;
  84:main.c        ****     char *point;
  85:main.c        **** 
  86:main.c        ****     CyGlobalIntEnable;
 274              		.loc 1 86 0
 275              		.syntax divided
 276              	@ 86 "main.c" 1
 277 000a 62B6     		CPSIE   i
 278              	@ 0 "" 2
  87:main.c        ****                     
  88:main.c        ****     /* Start SCB UART TX+RX operation */    
  89:main.c        ****     UART_Start(); 
 279              		.loc 1 89 0
 280              		.thumb
 281              		.syntax unified
 282 000c FFF7FEFF 		bl	UART_Start
 283              	.LVL20:
  90:main.c        ****     SPIM_Start();
 284              		.loc 1 90 0
 285 0010 FFF7FEFF 		bl	SPIM_Start
 286              	.LVL21:
  91:main.c        ****     isr_100Hz_StartEx(isr_100Hz);
 287              		.loc 1 91 0
 288 0014 3148     		ldr	r0, .L27
 289 0016 FFF7FEFF 		bl	isr_100Hz_StartEx
 290              	.LVL22:
  92:main.c        ****     
  93:main.c        ****     CyDelay(1000);
 291              		.loc 1 93 0
 292 001a FA20     		movs	r0, #250
 293 001c 8000     		lsls	r0, r0, #2
 294 001e FFF7FEFF 		bl	CyDelay
 295              	.LVL23:
  94:main.c        ****     
  95:main.c        **** 	UART_UartPutString("LAB 3.2 \r\n");
 296              		.loc 1 95 0
 297 0022 2F48     		ldr	r0, .L27+4
 298 0024 FFF7FEFF 		bl	UART_UartPutString
 299              	.LVL24:
ARM GAS  C:\Users\Ade0n\AppData\Local\Temp\ccajiy8j.s 			page 8


 300              	.L18:
  96:main.c        ****     
  97:main.c        ****     for(;;)
  98:main.c        ****     {   
  99:main.c        ****         decimals_after_comma = 0;
 100:main.c        ****         // Clear the buffer
 101:main.c        ****         memset(data, 0, sizeof data);
 301              		.loc 1 101 0
 302 0028 0622     		movs	r2, #6
 303 002a 0021     		movs	r1, #0
 304 002c 02A8     		add	r0, sp, #8
 305 002e FFF7FEFF 		bl	memset
 306              	.LVL25:
 102:main.c        ****         ch = UART_UartGetChar();
 307              		.loc 1 102 0
 308 0032 FFF7FEFF 		bl	UART_UartGetChar
 309              	.LVL26:
 310 0036 0F23     		movs	r3, #15
 311 0038 6B44     		add	r3, r3, sp
 312 003a 1870     		strb	r0, [r3]
 103:main.c        ****         
 104:main.c        ****         while(ch != '\r') {
 313              		.loc 1 104 0
 314 003c 0CE0     		b	.L19
 315              	.L20:
 105:main.c        ****             UART_UartPutChar(ch);
 316              		.loc 1 105 0
 317 003e 2000     		movs	r0, r4
 318 0040 FFF7FEFF 		bl	UART_SpiUartWriteTxData
 319              	.LVL27:
 106:main.c        ****             strncat(data, &ch, 1);
 320              		.loc 1 106 0
 321 0044 0F24     		movs	r4, #15
 322 0046 6C44     		add	r4, r4, sp
 323 0048 0122     		movs	r2, #1
 324 004a 2100     		movs	r1, r4
 325 004c 02A8     		add	r0, sp, #8
 326 004e FFF7FEFF 		bl	strncat
 327              	.LVL28:
 107:main.c        ****             ch = UART_UartGetChar();
 328              		.loc 1 107 0
 329 0052 FFF7FEFF 		bl	UART_UartGetChar
 330              	.LVL29:
 331 0056 2070     		strb	r0, [r4]
 332              	.L19:
 104:main.c        ****             UART_UartPutChar(ch);
 333              		.loc 1 104 0
 334 0058 0F23     		movs	r3, #15
 335 005a 6B44     		add	r3, r3, sp
 336 005c 1C78     		ldrb	r4, [r3]
 337 005e 0D2C     		cmp	r4, #13
 338 0060 EDD1     		bne	.L20
 108:main.c        ****         }
 109:main.c        ****         strncat(data, &end_char, 1);
 339              		.loc 1 109 0
 340 0062 0122     		movs	r2, #1
 341 0064 6B46     		mov	r3, sp
ARM GAS  C:\Users\Ade0n\AppData\Local\Temp\ccajiy8j.s 			page 9


 342 0066 D91D     		adds	r1, r3, #7
 343 0068 02A8     		add	r0, sp, #8
 344 006a FFF7FEFF 		bl	strncat
 345              	.LVL30:
 110:main.c        ****         
 111:main.c        ****         point = strchr(data, '.');
 346              		.loc 1 111 0
 347 006e 2E21     		movs	r1, #46
 348 0070 02A8     		add	r0, sp, #8
 349 0072 FFF7FEFF 		bl	strchr
 350              	.LVL31:
 112:main.c        ****         // If there is a point, we assign its location, else the location is 0;
 113:main.c        ****         if (point) {
 351              		.loc 1 113 0
 352 0076 0028     		cmp	r0, #0
 353 0078 03D0     		beq	.L26
 114:main.c        ****             decimals_after_comma = (int)(point - data);
 354              		.loc 1 114 0
 355 007a 02AD     		add	r5, sp, #8
 356 007c 401B     		subs	r0, r0, r5
 357              	.LVL32:
 358 007e 45B2     		sxtb	r5, r0
 359              	.LVL33:
 360 0080 00E0     		b	.L21
 361              	.LVL34:
 362              	.L26:
 115:main.c        ****         } else {
 116:main.c        ****             decimals_after_comma = 0;
 363              		.loc 1 116 0
 364 0082 0025     		movs	r5, #0
 365              	.LVL35:
 366              	.L21:
 117:main.c        ****         }
 118:main.c        ****         
 119:main.c        ****         if (ch==0) continue;
 367              		.loc 1 119 0
 368 0084 002C     		cmp	r4, #0
 369 0086 CFD0     		beq	.L18
 120:main.c        ****         // If the decimals after comma is not 0
 121:main.c        ****         if (decimals_after_comma != 0) {
 370              		.loc 1 121 0
 371 0088 002D     		cmp	r5, #0
 372 008a 0CD0     		beq	.L23
 122:main.c        ****             memmove(&data[decimals_after_comma],&data[decimals_after_comma+1],strlen(data)-decimals
 373              		.loc 1 122 0
 374 008c 02AB     		add	r3, sp, #8
 375 008e 5E19     		adds	r6, r3, r5
 376 0090 6C1C     		adds	r4, r5, #1
 377 0092 9C46     		mov	ip, r3
 378 0094 6444     		add	r4, r4, ip
 379 0096 1800     		movs	r0, r3
 380 0098 FFF7FEFF 		bl	strlen
 381              	.LVL36:
 382 009c 421B     		subs	r2, r0, r5
 383 009e 2100     		movs	r1, r4
 384 00a0 3000     		movs	r0, r6
 385 00a2 FFF7FEFF 		bl	memmove
ARM GAS  C:\Users\Ade0n\AppData\Local\Temp\ccajiy8j.s 			page 10


 386              	.LVL37:
 387              	.L23:
 123:main.c        ****         }
 124:main.c        ****         
 125:main.c        ****         sscanf(data, "%d", &num_data);
 388              		.loc 1 125 0
 389 00a6 6A46     		mov	r2, sp
 390 00a8 0E49     		ldr	r1, .L27+8
 391 00aa 02A8     		add	r0, sp, #8
 392 00ac FFF7FEFF 		bl	sscanf
 393              	.LVL38:
 126:main.c        ****         
 127:main.c        ****         if (decimals_after_comma != 0) {
 394              		.loc 1 127 0
 395 00b0 002D     		cmp	r5, #0
 396 00b2 09D0     		beq	.L24
 128:main.c        ****             out7seg((int16)num_data, strlen(data) - decimals_after_comma);
 397              		.loc 1 128 0
 398 00b4 02A8     		add	r0, sp, #8
 399 00b6 FFF7FEFF 		bl	strlen
 400              	.LVL39:
 401 00ba 411B     		subs	r1, r0, r5
 402 00bc C9B2     		uxtb	r1, r1
 403 00be 009B     		ldr	r3, [sp]
 404 00c0 18B2     		sxth	r0, r3
 405 00c2 FFF7FEFF 		bl	out7seg
 406              	.LVL40:
 407 00c6 04E0     		b	.L25
 408              	.L24:
 129:main.c        ****         } else {
 130:main.c        ****             out7seg((int16)num_data, decimals_after_comma);
 409              		.loc 1 130 0
 410 00c8 E9B2     		uxtb	r1, r5
 411 00ca 009B     		ldr	r3, [sp]
 412 00cc 18B2     		sxth	r0, r3
 413 00ce FFF7FEFF 		bl	out7seg
 414              	.LVL41:
 415              	.L25:
 131:main.c        ****         }
 132:main.c        ****         
 133:main.c        ****         UART_UartPutString("\r\n");
 416              		.loc 1 133 0
 417 00d2 0548     		ldr	r0, .L27+12
 418 00d4 FFF7FEFF 		bl	UART_UartPutString
 419              	.LVL42:
 420 00d8 A6E7     		b	.L18
 421              	.L28:
 422 00da C046     		.align	2
 423              	.L27:
 424 00dc 00000000 		.word	isr_100Hz
 425 00e0 00000000 		.word	.LC5
 426 00e4 0C000000 		.word	.LC7
 427 00e8 10000000 		.word	.LC9
 428              		.cfi_endproc
 429              	.LFE38:
 430              		.size	main, .-main
 431              		.global	KOD7
ARM GAS  C:\Users\Ade0n\AppData\Local\Temp\ccajiy8j.s 			page 11


 432              		.global	indyk
 433              		.section	.rodata
 434              		.align	2
 435              		.set	.LANCHOR2,. + 0
 436              		.type	KOD7, %object
 437              		.size	KOD7, 10
 438              	KOD7:
 439 0000 03       		.byte	3
 440 0001 9F       		.byte	-97
 441 0002 25       		.byte	37
 442 0003 0D       		.byte	13
 443 0004 99       		.byte	-103
 444 0005 49       		.byte	73
 445 0006 41       		.byte	65
 446 0007 1F       		.byte	31
 447 0008 01       		.byte	1
 448 0009 09       		.byte	9
 449              		.data
 450              		.align	2
 451              		.set	.LANCHOR0,. + 0
 452              		.type	indyk, %object
 453              		.size	indyk, 8
 454              	indyk:
 455 0000 FF10     		.short	4351
 456 0002 FF20     		.short	8447
 457 0004 FF40     		.short	16639
 458 0006 FF80     		.short	-32513
 459              		.section	.rodata.str1.4,"aMS",%progbits,1
 460              		.align	2
 461              	.LC5:
 462 0000 4C414220 		.ascii	"LAB 3.2 \015\012\000"
 462      332E3220 
 462      0D0A00
 463 000b 00       		.space	1
 464              	.LC7:
 465 000c 256400   		.ascii	"%d\000"
 466 000f 00       		.space	1
 467              	.LC9:
 468 0010 0D0A00   		.ascii	"\015\012\000"
 469              		.bss
 470              		.set	.LANCHOR1,. + 0
 471              		.type	N_indyk.6429, %object
 472              		.size	N_indyk.6429, 1
 473              	N_indyk.6429:
 474 0000 00       		.space	1
 475              		.text
 476              	.Letext0:
 477              		.file 2 "Generated_Source\\PSoC4/cytypes.h"
 478              		.file 3 "Generated_Source\\PSoC4/SPIM.h"
 479              		.file 4 "Generated_Source\\PSoC4/UART.h"
 480              		.file 5 "Generated_Source\\PSoC4/isr_100Hz.h"
 481              		.file 6 "Generated_Source\\PSoC4/CyLib.h"
 482              		.file 7 "Generated_Source\\PSoC4/UART_SPI_UART.h"
 483              		.file 8 "c:\\program files (x86)\\cypress\\psoc creator\\4.4\\psoc creator\\import\\gnu\\arm\\5.4.
 484              		.file 9 "c:\\program files (x86)\\cypress\\psoc creator\\4.4\\psoc creator\\import\\gnu\\arm\\5.4.