ARM GAS  C:\Users\Ade0n\AppData\Local\Temp\cc0EeCAF.s 			page 1


   1              		.syntax unified
   2              		.cpu cortex-m0
   3              		.fpu softvfp
   4              		.eabi_attribute 20, 1
   5              		.eabi_attribute 21, 1
   6              		.eabi_attribute 23, 3
   7              		.eabi_attribute 24, 1
   8              		.eabi_attribute 25, 1
   9              		.eabi_attribute 26, 1
  10              		.eabi_attribute 30, 1
  11              		.eabi_attribute 34, 0
  12              		.eabi_attribute 18, 4
  13              		.thumb
  14              		.syntax unified
  15              		.file	"main.c"
  16              		.text
  17              	.Ltext0:
  18              		.cfi_sections	.debug_frame
  19              		.section	.text.isr_100Hz,"ax",%progbits
  20              		.align	2
  21              		.global	isr_100Hz
  22              		.code	16
  23              		.thumb_func
  24              		.type	isr_100Hz, %function
  25              	isr_100Hz:
  26              	.LFB35:
  27              		.file 1 "main.c"
   1:main.c        **** /* ========================================
   2:main.c        ****  *
   3:main.c        ****  * Copyright YOUR COMPANY, THE YEAR
   4:main.c        ****  * All Rights Reserved
   5:main.c        ****  * UNPUBLISHED, LICENSED SOFTWARE.
   6:main.c        ****  *
   7:main.c        ****  * CONFIDENTIAL AND PROPRIETARY INFORMATION
   8:main.c        ****  * WHICH IS THE PROPERTY OF your company.
   9:main.c        ****  *
  10:main.c        ****  * ========================================
  11:main.c        **** */
  12:main.c        **** #include "project.h"
  13:main.c        **** 
  14:main.c        **** void out7seg(int16, uint8);
  15:main.c        **** 
  16:main.c        **** uint16 indyk[4]         = {0x10FF,0x20FF,0x40FF,0x80FF};
  17:main.c        **** const uint8 KOD7[10]    = {0x03,0x9F,0x25,0x0D,0x99,0x49,0x41,0x1F,0x01,0x09};
  18:main.c        **** 
  19:main.c        **** CY_ISR(isr_100Hz)
  20:main.c        **** {
  28              		.loc 1 20 0
  29              		.cfi_startproc
  30              		@ args = 0, pretend = 0, frame = 0
  31              		@ frame_needed = 0, uses_anonymous_args = 0
  32 0000 10B5     		push	{r4, lr}
  33              		.cfi_def_cfa_offset 8
  34              		.cfi_offset 4, -8
  35              		.cfi_offset 14, -4
  21:main.c        ****     static uint8 N_indyk = 0u;
  22:main.c        ****     
ARM GAS  C:\Users\Ade0n\AppData\Local\Temp\cc0EeCAF.s 			page 2


  23:main.c        ****     SPIM_WriteTxData(indyk[N_indyk]);
  36              		.loc 1 23 0
  37 0002 064C     		ldr	r4, .L2
  38 0004 2378     		ldrb	r3, [r4]
  39 0006 5B00     		lsls	r3, r3, #1
  40 0008 054A     		ldr	r2, .L2+4
  41 000a 985A     		ldrh	r0, [r3, r2]
  42 000c FFF7FEFF 		bl	SPIM_WriteTxData
  43              	.LVL0:
  24:main.c        ****     
  25:main.c        ****     N_indyk++;
  44              		.loc 1 25 0
  45 0010 2378     		ldrb	r3, [r4]
  46 0012 0133     		adds	r3, r3, #1
  26:main.c        ****     N_indyk &= 3;    
  47              		.loc 1 26 0
  48 0014 0322     		movs	r2, #3
  49 0016 1340     		ands	r3, r2
  50 0018 2370     		strb	r3, [r4]
  27:main.c        **** }
  51              		.loc 1 27 0
  52              		@ sp needed
  53 001a 10BD     		pop	{r4, pc}
  54              	.L3:
  55              		.align	2
  56              	.L2:
  57 001c 00000000 		.word	.LANCHOR1
  58 0020 00000000 		.word	.LANCHOR0
  59              		.cfi_endproc
  60              	.LFE35:
  61              		.size	isr_100Hz, .-isr_100Hz
  62              		.global	__aeabi_idivmod
  63              		.global	__aeabi_idiv
  64              		.section	.text.out7seg,"ax",%progbits
  65              		.align	2
  66              		.global	out7seg
  67              		.code	16
  68              		.thumb_func
  69              		.type	out7seg, %function
  70              	out7seg:
  71              	.LFB36:
  28:main.c        **** 
  29:main.c        **** void out7seg(int16 data, uint8 comma_pos)
  30:main.c        **** {
  72              		.loc 1 30 0
  73              		.cfi_startproc
  74              		@ args = 0, pretend = 0, frame = 0
  75              		@ frame_needed = 0, uses_anonymous_args = 0
  76              	.LVL1:
  77 0000 F0B5     		push	{r4, r5, r6, r7, lr}
  78              		.cfi_def_cfa_offset 20
  79              		.cfi_offset 4, -20
  80              		.cfi_offset 5, -16
  81              		.cfi_offset 6, -12
  82              		.cfi_offset 7, -8
  83              		.cfi_offset 14, -4
  84 0002 5746     		mov	r7, r10
ARM GAS  C:\Users\Ade0n\AppData\Local\Temp\cc0EeCAF.s 			page 3


  85 0004 4E46     		mov	r6, r9
  86 0006 4546     		mov	r5, r8
  87 0008 E0B4     		push	{r5, r6, r7}
  88              		.cfi_def_cfa_offset 32
  89              		.cfi_offset 8, -32
  90              		.cfi_offset 9, -28
  91              		.cfi_offset 10, -24
  92 000a 071E     		subs	r7, r0, #0
  93 000c 8946     		mov	r9, r1
  31:main.c        ****     uint8 flag;
  32:main.c        ****     if (data >= 0) {
  94              		.loc 1 32 0
  95 000e 02DB     		blt	.L14
  33:main.c        ****         flag = 0;
  96              		.loc 1 33 0
  97 0010 0023     		movs	r3, #0
  98 0012 9A46     		mov	r10, r3
  99 0014 01E0     		b	.L5
 100              	.L14:
  34:main.c        ****     } else {
  35:main.c        ****         flag = 1;
 101              		.loc 1 35 0
 102 0016 0123     		movs	r3, #1
 103 0018 9A46     		mov	r10, r3
 104              	.L5:
 105              	.LVL2:
  36:main.c        ****     }
  37:main.c        ****     
  38:main.c        ****     uint8 i;
  39:main.c        ****     if (flag) {
 106              		.loc 1 39 0
 107 001a 5346     		mov	r3, r10
 108 001c 002B     		cmp	r3, #0
 109 001e 01D0     		beq	.L6
  40:main.c        ****         data = ~data + 1;
 110              		.loc 1 40 0
 111 0020 7F42     		rsbs	r7, r7, #0
 112 0022 3FB2     		sxth	r7, r7
 113              	.LVL3:
 114              	.L6:
  35:main.c        ****     }
 115              		.loc 1 35 0 discriminator 1
 116 0024 0026     		movs	r6, #0
 117 0026 19E0     		b	.L7
 118              	.LVL4:
 119              	.L9:
  41:main.c        ****     }
  42:main.c        ****     
  43:main.c        ****     for (i = 0; i < 4; i++)
  44:main.c        ****     {
  45:main.c        ****         indyk[i] &= 0xFF00;
 120              		.loc 1 45 0
 121 0028 294C     		ldr	r4, .L15
 122 002a 7500     		lsls	r5, r6, #1
 123 002c 2B5B     		ldrh	r3, [r5, r4]
 124 002e FF22     		movs	r2, #255
 125 0030 9343     		bics	r3, r2
ARM GAS  C:\Users\Ade0n\AppData\Local\Temp\cc0EeCAF.s 			page 4


 126 0032 9846     		mov	r8, r3
 127 0034 2B53     		strh	r3, [r5, r4]
  46:main.c        ****         // виводимо цифри числа попорядку
  47:main.c        ****         indyk[i] |= (uint16)KOD7[data % 10];
 128              		.loc 1 47 0
 129 0036 0A21     		movs	r1, #10
 130 0038 3800     		movs	r0, r7
 131 003a FFF7FEFF 		bl	__aeabi_idivmod
 132              	.LVL5:
 133 003e 09B2     		sxth	r1, r1
 134 0040 244B     		ldr	r3, .L15+4
 135 0042 5B5C     		ldrb	r3, [r3, r1]
 136 0044 4246     		mov	r2, r8
 137 0046 1343     		orrs	r3, r2
 138 0048 2B53     		strh	r3, [r5, r4]
  48:main.c        ****         data /= 10;
 139              		.loc 1 48 0
 140 004a 0A21     		movs	r1, #10
 141 004c 3800     		movs	r0, r7
 142 004e FFF7FEFF 		bl	__aeabi_idiv
 143              	.LVL6:
 144 0052 07B2     		sxth	r7, r0
 145              	.LVL7:
  49:main.c        ****         if (data == 0) break;
 146              		.loc 1 49 0
 147 0054 002F     		cmp	r7, #0
 148 0056 03D0     		beq	.L8
  43:main.c        ****     {
 149              		.loc 1 43 0 discriminator 2
 150 0058 0136     		adds	r6, r6, #1
 151              	.LVL8:
 152 005a F6B2     		uxtb	r6, r6
 153              	.LVL9:
 154              	.L7:
  43:main.c        ****     {
 155              		.loc 1 43 0 is_stmt 0 discriminator 1
 156 005c 032E     		cmp	r6, #3
 157 005e E3D9     		bls	.L9
 158              	.L8:
  50:main.c        ****     }
  51:main.c        ****     uint8 minus_pos = i + 1;
 159              		.loc 1 51 0 is_stmt 1
 160 0060 0136     		adds	r6, r6, #1
 161              	.LVL10:
 162 0062 F6B2     		uxtb	r6, r6
 163              	.LVL11:
  52:main.c        ****     
  53:main.c        ****     for (i++; i < 4; i++)
 164              		.loc 1 53 0
 165 0064 3300     		movs	r3, r6
 166 0066 07E0     		b	.L10
 167              	.LVL12:
 168              	.L11:
  54:main.c        ****     {
  55:main.c        ****         indyk[i] |= 0x00FF;
 169              		.loc 1 55 0 discriminator 3
 170 0068 1949     		ldr	r1, .L15
ARM GAS  C:\Users\Ade0n\AppData\Local\Temp\cc0EeCAF.s 			page 5


 171 006a 5800     		lsls	r0, r3, #1
 172 006c 475A     		ldrh	r7, [r0, r1]
 173 006e FF22     		movs	r2, #255
 174 0070 3A43     		orrs	r2, r7
 175 0072 4252     		strh	r2, [r0, r1]
  53:main.c        ****     {
 176              		.loc 1 53 0 discriminator 3
 177 0074 0133     		adds	r3, r3, #1
 178              	.LVL13:
 179 0076 DBB2     		uxtb	r3, r3
 180              	.LVL14:
 181              	.L10:
  53:main.c        ****     {
 182              		.loc 1 53 0 is_stmt 0 discriminator 1
 183 0078 032B     		cmp	r3, #3
 184 007a F5D9     		bls	.L11
  56:main.c        ****     }
  57:main.c        ****     if (flag) {
 185              		.loc 1 57 0 is_stmt 1
 186 007c 5346     		mov	r3, r10
 187              	.LVL15:
 188 007e 002B     		cmp	r3, #0
 189 0080 14D0     		beq	.L12
  58:main.c        ****         indyk[minus_pos] &= 0xFF00;
 190              		.loc 1 58 0
 191 0082 1349     		ldr	r1, .L15
 192 0084 7600     		lsls	r6, r6, #1
 193              	.LVL16:
 194 0086 735A     		ldrh	r3, [r6, r1]
 195 0088 FF22     		movs	r2, #255
 196 008a 9343     		bics	r3, r2
  59:main.c        ****         indyk[minus_pos] |= (uint16)0xFD;
 197              		.loc 1 59 0
 198 008c FD22     		movs	r2, #253
 199 008e 1343     		orrs	r3, r2
 200 0090 7352     		strh	r3, [r6, r1]
  60:main.c        ****         if (comma_pos < 3 && comma_pos > 0) {
 201              		.loc 1 60 0
 202 0092 4B46     		mov	r3, r9
 203 0094 013B     		subs	r3, r3, #1
 204 0096 DBB2     		uxtb	r3, r3
 205 0098 012B     		cmp	r3, #1
 206 009a 13D8     		bhi	.L4
  61:main.c        ****             indyk[comma_pos] ^= (-0 ^ indyk[comma_pos]) & (1UL << 0);
 207              		.loc 1 61 0
 208 009c 0A00     		movs	r2, r1
 209 009e 4B46     		mov	r3, r9
 210 00a0 5C00     		lsls	r4, r3, #1
 211 00a2 635A     		ldrh	r3, [r4, r1]
 212 00a4 0121     		movs	r1, #1
 213 00a6 8B43     		bics	r3, r1
 214 00a8 A352     		strh	r3, [r4, r2]
 215 00aa 0BE0     		b	.L4
 216              	.LVL17:
 217              	.L12:
  62:main.c        ****         }
  63:main.c        ****     } else {
ARM GAS  C:\Users\Ade0n\AppData\Local\Temp\cc0EeCAF.s 			page 6


  64:main.c        ****         if (comma_pos < 4 && comma_pos > 0) {
 218              		.loc 1 64 0
 219 00ac 4B46     		mov	r3, r9
 220 00ae 013B     		subs	r3, r3, #1
 221 00b0 DBB2     		uxtb	r3, r3
 222 00b2 022B     		cmp	r3, #2
 223 00b4 06D8     		bhi	.L4
  65:main.c        ****             indyk[comma_pos] ^= (-0 ^ indyk[comma_pos]) & (1UL << 0);
 224              		.loc 1 65 0
 225 00b6 064A     		ldr	r2, .L15
 226 00b8 4B46     		mov	r3, r9
 227 00ba 5C00     		lsls	r4, r3, #1
 228 00bc A35A     		ldrh	r3, [r4, r2]
 229 00be 0121     		movs	r1, #1
 230 00c0 8B43     		bics	r3, r1
 231 00c2 A352     		strh	r3, [r4, r2]
 232              	.LVL18:
 233              	.L4:
  66:main.c        ****         }
  67:main.c        ****     }
  68:main.c        ****     
  69:main.c        **** }
 234              		.loc 1 69 0
 235              		@ sp needed
 236              	.LVL19:
 237 00c4 1CBC     		pop	{r2, r3, r4}
 238 00c6 9046     		mov	r8, r2
 239 00c8 9946     		mov	r9, r3
 240 00ca A246     		mov	r10, r4
 241 00cc F0BD     		pop	{r4, r5, r6, r7, pc}
 242              	.L16:
 243 00ce C046     		.align	2
 244              	.L15:
 245 00d0 00000000 		.word	.LANCHOR0
 246 00d4 00000000 		.word	.LANCHOR2
 247              		.cfi_endproc
 248              	.LFE36:
 249              		.size	out7seg, .-out7seg
 250              		.section	.text.main,"ax",%progbits
 251              		.align	2
 252              		.global	main
 253              		.code	16
 254              		.thumb_func
 255              		.type	main, %function
 256              	main:
 257              	.LFB37:
  70:main.c        **** 
  71:main.c        **** 
  72:main.c        **** int main(void)
  73:main.c        **** {
 258              		.loc 1 73 0
 259              		.cfi_startproc
 260              		@ args = 0, pretend = 0, frame = 0
 261              		@ frame_needed = 0, uses_anonymous_args = 0
 262 0000 10B5     		push	{r4, lr}
 263              		.cfi_def_cfa_offset 8
 264              		.cfi_offset 4, -8
ARM GAS  C:\Users\Ade0n\AppData\Local\Temp\cc0EeCAF.s 			page 7


 265              		.cfi_offset 14, -4
 266              	.LVL20:
  74:main.c        ****     uint16 counter = 100;
  75:main.c        ****     uint8 decimals_after_comma = 2;
  76:main.c        ****     /*float divider = 10;
  77:main.c        ****     float data = 0;*/
  78:main.c        ****     
  79:main.c        ****     CyGlobalIntEnable; /* Enable global interrupts. */
 267              		.loc 1 79 0
 268              		.syntax divided
 269              	@ 79 "main.c" 1
 270 0002 62B6     		CPSIE   i
 271              	@ 0 "" 2
  80:main.c        ****     
  81:main.c        ****     SPIM_Start();
 272              		.loc 1 81 0
 273              		.thumb
 274              		.syntax unified
 275 0004 FFF7FEFF 		bl	SPIM_Start
 276              	.LVL21:
  82:main.c        ****     isr_100Hz_StartEx(isr_100Hz);
 277              		.loc 1 82 0
 278 0008 0E48     		ldr	r0, .L23
 279 000a FFF7FEFF 		bl	isr_100Hz_StartEx
 280              	.LVL22:
  74:main.c        ****     uint16 counter = 100;
 281              		.loc 1 74 0
 282 000e 6424     		movs	r4, #100
 283 0010 00E0     		b	.L18
 284              	.LVL23:
 285              	.L22:
  83:main.c        ****     
  84:main.c        **** 
  85:main.c        ****     for(;;)
  86:main.c        ****     {
  87:main.c        ****         counter++;
  88:main.c        ****         /*data = counter;
  89:main.c        ****         decimals_after_comma = 0;
  90:main.c        ****         while(data != ((int)data))
  91:main.c        ****         {
  92:main.c        ****             decimals_after_comma++;
  93:main.c        ****             data = data * divider;
  94:main.c        ****         }*/
  95:main.c        ****         out7seg(counter, decimals_after_comma);
  96:main.c        ****         
  97:main.c        ****         CyDelay(300);
  98:main.c        ****         
  99:main.c        ****         if (Pin_B1_Read() == 0)
 100:main.c        ****         {
 101:main.c        ****             CyDelay(700);
 102:main.c        ****         }
 103:main.c        ****         if (Pin_B2_Read() == 0) {
 104:main.c        ****             counter = 100;
 286              		.loc 1 104 0
 287 0012 6424     		movs	r4, #100
 288              	.LVL24:
 289              	.L18:
ARM GAS  C:\Users\Ade0n\AppData\Local\Temp\cc0EeCAF.s 			page 8


  87:main.c        ****         /*data = counter;
 290              		.loc 1 87 0
 291 0014 0134     		adds	r4, r4, #1
 292              	.LVL25:
 293 0016 A4B2     		uxth	r4, r4
 294              	.LVL26:
  95:main.c        ****         
 295              		.loc 1 95 0
 296 0018 20B2     		sxth	r0, r4
 297 001a 0221     		movs	r1, #2
 298 001c FFF7FEFF 		bl	out7seg
 299              	.LVL27:
  97:main.c        ****         
 300              		.loc 1 97 0
 301 0020 9620     		movs	r0, #150
 302 0022 4000     		lsls	r0, r0, #1
 303 0024 FFF7FEFF 		bl	CyDelay
 304              	.LVL28:
  99:main.c        ****         {
 305              		.loc 1 99 0
 306 0028 FFF7FEFF 		bl	Pin_B1_Read
 307              	.LVL29:
 308 002c 0028     		cmp	r0, #0
 309 002e 03D1     		bne	.L19
 101:main.c        ****         }
 310              		.loc 1 101 0
 311 0030 AF20     		movs	r0, #175
 312 0032 8000     		lsls	r0, r0, #2
 313 0034 FFF7FEFF 		bl	CyDelay
 314              	.LVL30:
 315              	.L19:
 103:main.c        ****             counter = 100;
 316              		.loc 1 103 0
 317 0038 FFF7FEFF 		bl	Pin_B2_Read
 318              	.LVL31:
 319 003c 0028     		cmp	r0, #0
 320 003e E8D0     		beq	.L22
 321 0040 E8E7     		b	.L18
 322              	.L24:
 323 0042 C046     		.align	2
 324              	.L23:
 325 0044 00000000 		.word	isr_100Hz
 326              		.cfi_endproc
 327              	.LFE37:
 328              		.size	main, .-main
 329              		.global	KOD7
 330              		.global	indyk
 331              		.section	.rodata
 332              		.align	2
 333              		.set	.LANCHOR2,. + 0
 334              		.type	KOD7, %object
 335              		.size	KOD7, 10
 336              	KOD7:
 337 0000 03       		.byte	3
 338 0001 9F       		.byte	-97
 339 0002 25       		.byte	37
 340 0003 0D       		.byte	13
ARM GAS  C:\Users\Ade0n\AppData\Local\Temp\cc0EeCAF.s 			page 9


 341 0004 99       		.byte	-103
 342 0005 49       		.byte	73
 343 0006 41       		.byte	65
 344 0007 1F       		.byte	31
 345 0008 01       		.byte	1
 346 0009 09       		.byte	9
 347              		.data
 348              		.align	2
 349              		.set	.LANCHOR0,. + 0
 350              		.type	indyk, %object
 351              		.size	indyk, 8
 352              	indyk:
 353 0000 FF10     		.short	4351
 354 0002 FF20     		.short	8447
 355 0004 FF40     		.short	16639
 356 0006 FF80     		.short	-32513
 357              		.bss
 358              		.set	.LANCHOR1,. + 0
 359              		.type	N_indyk.5525, %object
 360              		.size	N_indyk.5525, 1
 361              	N_indyk.5525:
 362 0000 00       		.space	1
 363              		.text
 364              	.Letext0:
 365              		.file 2 "Generated_Source\\PSoC4/cytypes.h"
 366              		.file 3 "Generated_Source\\PSoC4/SPIM.h"
 367              		.file 4 "Generated_Source\\PSoC4/isr_100Hz.h"
 368              		.file 5 "Generated_Source\\PSoC4/CyLib.h"
 369              		.file 6 "Generated_Source\\PSoC4/Pin_B1.h"
 370              		.file 7 "Generated_Source\\PSoC4/Pin_B2.h"