ARM GAS  C:\Users\Ade0n\AppData\Local\Temp\ccz9akgG.s 			page 1


   1              		.syntax unified
   2              		.cpu cortex-m0
   3              		.fpu softvfp
   4              		.eabi_attribute 20, 1
   5              		.eabi_attribute 21, 1
   6              		.eabi_attribute 23, 3
   7              		.eabi_attribute 24, 1
   8              		.eabi_attribute 25, 1
   9              		.eabi_attribute 26, 1
  10              		.eabi_attribute 30, 1
  11              		.eabi_attribute 34, 0
  12              		.eabi_attribute 18, 4
  13              		.thumb
  14              		.syntax unified
  15              		.file	"main.c"
  16              		.text
  17              	.Ltext0:
  18              		.cfi_sections	.debug_frame
  19              		.section	.text.isr_100Hz,"ax",%progbits
  20              		.align	2
  21              		.global	isr_100Hz
  22              		.code	16
  23              		.thumb_func
  24              		.type	isr_100Hz, %function
  25              	isr_100Hz:
  26              	.LFB35:
  27              		.file 1 "main.c"
   1:main.c        **** /* ========================================
   2:main.c        ****  *
   3:main.c        ****  * Copyright YOUR COMPANY, THE YEAR
   4:main.c        ****  * All Rights Reserved
   5:main.c        ****  * UNPUBLISHED, LICENSED SOFTWARE.
   6:main.c        ****  *
   7:main.c        ****  * CONFIDENTIAL AND PROPRIETARY INFORMATION
   8:main.c        ****  * WHICH IS THE PROPERTY OF your company.
   9:main.c        ****  *
  10:main.c        ****  * ========================================
  11:main.c        **** */
  12:main.c        **** #include "project.h"
  13:main.c        **** 
  14:main.c        **** void out7seg(int16);
  15:main.c        **** 
  16:main.c        **** uint16 indyk[4]         = {0x10FF,0x20FF,0x40FF,0x80FF};
  17:main.c        **** const uint8 KOD7[10]    = {0x03,0x9F,0x25,0x0D,0x99,0x49,0x41,0x1F,0x01,0x09};
  18:main.c        **** 
  19:main.c        **** CY_ISR(isr_100Hz)
  20:main.c        **** {
  28              		.loc 1 20 0
  29              		.cfi_startproc
  30              		@ args = 0, pretend = 0, frame = 0
  31              		@ frame_needed = 0, uses_anonymous_args = 0
  32 0000 10B5     		push	{r4, lr}
  33              		.cfi_def_cfa_offset 8
  34              		.cfi_offset 4, -8
  35              		.cfi_offset 14, -4
  21:main.c        ****     static uint8 N_indyk = 0u;
  22:main.c        ****     
ARM GAS  C:\Users\Ade0n\AppData\Local\Temp\ccz9akgG.s 			page 2


  23:main.c        ****     SPIM_WriteTxData(indyk[N_indyk]);
  36              		.loc 1 23 0
  37 0002 064C     		ldr	r4, .L2
  38 0004 2378     		ldrb	r3, [r4]
  39 0006 5B00     		lsls	r3, r3, #1
  40 0008 054A     		ldr	r2, .L2+4
  41 000a 985A     		ldrh	r0, [r3, r2]
  42 000c FFF7FEFF 		bl	SPIM_WriteTxData
  43              	.LVL0:
  24:main.c        ****     
  25:main.c        ****     N_indyk++;
  44              		.loc 1 25 0
  45 0010 2378     		ldrb	r3, [r4]
  46 0012 0133     		adds	r3, r3, #1
  26:main.c        ****     N_indyk &= 3;    
  47              		.loc 1 26 0
  48 0014 0322     		movs	r2, #3
  49 0016 1340     		ands	r3, r2
  50 0018 2370     		strb	r3, [r4]
  27:main.c        **** }
  51              		.loc 1 27 0
  52              		@ sp needed
  53 001a 10BD     		pop	{r4, pc}
  54              	.L3:
  55              		.align	2
  56              	.L2:
  57 001c 00000000 		.word	.LANCHOR1
  58 0020 00000000 		.word	.LANCHOR0
  59              		.cfi_endproc
  60              	.LFE35:
  61              		.size	isr_100Hz, .-isr_100Hz
  62              		.global	__aeabi_idivmod
  63              		.global	__aeabi_idiv
  64              		.section	.text.out7seg,"ax",%progbits
  65              		.align	2
  66              		.global	out7seg
  67              		.code	16
  68              		.thumb_func
  69              		.type	out7seg, %function
  70              	out7seg:
  71              	.LFB36:
  28:main.c        **** 
  29:main.c        **** void out7seg(int16 data)
  30:main.c        **** {
  72              		.loc 1 30 0
  73              		.cfi_startproc
  74              		@ args = 0, pretend = 0, frame = 0
  75              		@ frame_needed = 0, uses_anonymous_args = 0
  76              	.LVL1:
  77 0000 F8B5     		push	{r3, r4, r5, r6, r7, lr}
  78              		.cfi_def_cfa_offset 24
  79              		.cfi_offset 3, -24
  80              		.cfi_offset 4, -20
  81              		.cfi_offset 5, -16
  82              		.cfi_offset 6, -12
  83              		.cfi_offset 7, -8
  84              		.cfi_offset 14, -4
ARM GAS  C:\Users\Ade0n\AppData\Local\Temp\ccz9akgG.s 			page 3


  85 0002 4F46     		mov	r7, r9
  86 0004 4646     		mov	r6, r8
  87 0006 C0B4     		push	{r6, r7}
  88              		.cfi_def_cfa_offset 32
  89              		.cfi_offset 8, -32
  90              		.cfi_offset 9, -28
  91 0008 061E     		subs	r6, r0, #0
  31:main.c        ****     uint8 flag;
  32:main.c        ****     if (data >= 0) {
  92              		.loc 1 32 0
  93 000a 02DB     		blt	.L13
  33:main.c        ****         flag = 0;
  94              		.loc 1 33 0
  95 000c 0023     		movs	r3, #0
  96 000e 9846     		mov	r8, r3
  97 0010 01E0     		b	.L5
  98              	.L13:
  34:main.c        ****     } else {
  35:main.c        ****         flag = 1;
  99              		.loc 1 35 0
 100 0012 0123     		movs	r3, #1
 101 0014 9846     		mov	r8, r3
 102              	.L5:
 103              	.LVL2:
  36:main.c        ****     }
  37:main.c        ****     
  38:main.c        ****     uint8 i;
  39:main.c        ****     if (flag) {
 104              		.loc 1 39 0
 105 0016 4346     		mov	r3, r8
 106 0018 002B     		cmp	r3, #0
 107 001a 01D0     		beq	.L6
  40:main.c        ****         data = ~data + 1;
 108              		.loc 1 40 0
 109 001c 7642     		rsbs	r6, r6, #0
 110 001e 36B2     		sxth	r6, r6
 111              	.LVL3:
 112              	.L6:
  35:main.c        ****     }
 113              		.loc 1 35 0 discriminator 1
 114 0020 0024     		movs	r4, #0
 115 0022 1AE0     		b	.L7
 116              	.LVL4:
 117              	.L9:
  41:main.c        ****     }
  42:main.c        ****     
  43:main.c        ****     for (i = 0; i < 4; i++)
  44:main.c        ****     {
  45:main.c        ****         indyk[i] &= 0xFF00;
 118              		.loc 1 45 0
 119 0024 1C4D     		ldr	r5, .L14
 120 0026 6300     		lsls	r3, r4, #1
 121 0028 9946     		mov	r9, r3
 122 002a 5F5B     		ldrh	r7, [r3, r5]
 123 002c FF23     		movs	r3, #255
 124 002e 9F43     		bics	r7, r3
 125 0030 4B46     		mov	r3, r9
ARM GAS  C:\Users\Ade0n\AppData\Local\Temp\ccz9akgG.s 			page 4


 126 0032 5F53     		strh	r7, [r3, r5]
  46:main.c        ****         // виводимо цифри числа попорядку
  47:main.c        ****         indyk[i] |= (uint16)KOD7[data % 10];
 127              		.loc 1 47 0
 128 0034 0A21     		movs	r1, #10
 129 0036 3000     		movs	r0, r6
 130 0038 FFF7FEFF 		bl	__aeabi_idivmod
 131              	.LVL5:
 132 003c 09B2     		sxth	r1, r1
 133 003e 174B     		ldr	r3, .L14+4
 134 0040 5B5C     		ldrb	r3, [r3, r1]
 135 0042 1F43     		orrs	r7, r3
 136 0044 4B46     		mov	r3, r9
 137 0046 5F53     		strh	r7, [r3, r5]
  48:main.c        ****         data /= 10;
 138              		.loc 1 48 0
 139 0048 0A21     		movs	r1, #10
 140 004a 3000     		movs	r0, r6
 141 004c FFF7FEFF 		bl	__aeabi_idiv
 142              	.LVL6:
 143 0050 06B2     		sxth	r6, r0
 144              	.LVL7:
  49:main.c        ****         if (data == 0) break;
 145              		.loc 1 49 0
 146 0052 002E     		cmp	r6, #0
 147 0054 03D0     		beq	.L8
  43:main.c        ****     {
 148              		.loc 1 43 0 discriminator 2
 149 0056 0134     		adds	r4, r4, #1
 150              	.LVL8:
 151 0058 E4B2     		uxtb	r4, r4
 152              	.LVL9:
 153              	.L7:
  43:main.c        ****     {
 154              		.loc 1 43 0 is_stmt 0 discriminator 1
 155 005a 032C     		cmp	r4, #3
 156 005c E2D9     		bls	.L9
 157              	.L8:
  50:main.c        ****     }
  51:main.c        ****     
  52:main.c        ****     uint8 minus_pos = i + 1;
 158              		.loc 1 52 0 is_stmt 1
 159 005e 0134     		adds	r4, r4, #1
 160              	.LVL10:
 161 0060 E4B2     		uxtb	r4, r4
 162              	.LVL11:
  53:main.c        ****     
  54:main.c        ****     for (i++; i < 4; i++)
 163              		.loc 1 54 0
 164 0062 2300     		movs	r3, r4
 165 0064 07E0     		b	.L10
 166              	.LVL12:
 167              	.L11:
  55:main.c        ****     {
  56:main.c        ****         indyk[i] |= 0x00FF;
 168              		.loc 1 56 0 discriminator 3
 169 0066 0C49     		ldr	r1, .L14
ARM GAS  C:\Users\Ade0n\AppData\Local\Temp\ccz9akgG.s 			page 5


 170 0068 5800     		lsls	r0, r3, #1
 171 006a 465A     		ldrh	r6, [r0, r1]
 172 006c FF22     		movs	r2, #255
 173 006e 3243     		orrs	r2, r6
 174 0070 4252     		strh	r2, [r0, r1]
  54:main.c        ****     {
 175              		.loc 1 54 0 discriminator 3
 176 0072 0133     		adds	r3, r3, #1
 177              	.LVL13:
 178 0074 DBB2     		uxtb	r3, r3
 179              	.LVL14:
 180              	.L10:
  54:main.c        ****     {
 181              		.loc 1 54 0 is_stmt 0 discriminator 1
 182 0076 032B     		cmp	r3, #3
 183 0078 F5D9     		bls	.L11
  57:main.c        ****     }
  58:main.c        ****     if (flag) {
 184              		.loc 1 58 0 is_stmt 1
 185 007a 4346     		mov	r3, r8
 186              	.LVL15:
 187 007c 002B     		cmp	r3, #0
 188 007e 07D0     		beq	.L4
  59:main.c        ****         indyk[minus_pos] &= 0xFF00;
 189              		.loc 1 59 0
 190 0080 0549     		ldr	r1, .L14
 191 0082 6400     		lsls	r4, r4, #1
 192              	.LVL16:
 193 0084 635A     		ldrh	r3, [r4, r1]
 194 0086 FF22     		movs	r2, #255
 195 0088 9343     		bics	r3, r2
  60:main.c        ****         indyk[minus_pos] |= (uint16)0xFD;
 196              		.loc 1 60 0
 197 008a FD22     		movs	r2, #253
 198 008c 1343     		orrs	r3, r2
 199 008e 6352     		strh	r3, [r4, r1]
 200              	.L4:
  61:main.c        ****     }
  62:main.c        ****     
  63:main.c        **** }
 201              		.loc 1 63 0
 202              		@ sp needed
 203              	.LVL17:
 204 0090 0CBC     		pop	{r2, r3}
 205 0092 9046     		mov	r8, r2
 206 0094 9946     		mov	r9, r3
 207 0096 F8BD     		pop	{r3, r4, r5, r6, r7, pc}
 208              	.L15:
 209              		.align	2
 210              	.L14:
 211 0098 00000000 		.word	.LANCHOR0
 212 009c 00000000 		.word	.LANCHOR2
 213              		.cfi_endproc
 214              	.LFE36:
 215              		.size	out7seg, .-out7seg
 216              		.section	.text.main,"ax",%progbits
 217              		.align	2
ARM GAS  C:\Users\Ade0n\AppData\Local\Temp\ccz9akgG.s 			page 6


 218              		.global	main
 219              		.code	16
 220              		.thumb_func
 221              		.type	main, %function
 222              	main:
 223              	.LFB37:
  64:main.c        **** 
  65:main.c        **** int main(void)
  66:main.c        **** {
 224              		.loc 1 66 0
 225              		.cfi_startproc
 226              		@ args = 0, pretend = 0, frame = 0
 227              		@ frame_needed = 0, uses_anonymous_args = 0
 228 0000 10B5     		push	{r4, lr}
 229              		.cfi_def_cfa_offset 8
 230              		.cfi_offset 4, -8
 231              		.cfi_offset 14, -4
 232              	.LVL18:
  67:main.c        ****     int16 counter = 10;
  68:main.c        ****     
  69:main.c        ****     CyGlobalIntEnable; /* Enable global interrupts. */
 233              		.loc 1 69 0
 234              		.syntax divided
 235              	@ 69 "main.c" 1
 236 0002 62B6     		CPSIE   i
 237              	@ 0 "" 2
  70:main.c        ****     
  71:main.c        ****     SPIM_Start();
 238              		.loc 1 71 0
 239              		.thumb
 240              		.syntax unified
 241 0004 FFF7FEFF 		bl	SPIM_Start
 242              	.LVL19:
  72:main.c        ****     isr_100Hz_StartEx(isr_100Hz);
 243              		.loc 1 72 0
 244 0008 0C48     		ldr	r0, .L22
 245 000a FFF7FEFF 		bl	isr_100Hz_StartEx
 246              	.LVL20:
  67:main.c        ****     int16 counter = 10;
 247              		.loc 1 67 0
 248 000e 0A24     		movs	r4, #10
 249 0010 00E0     		b	.L17
 250              	.LVL21:
 251              	.L21:
  73:main.c        **** 
  74:main.c        ****     for(;;)
  75:main.c        ****     {
  76:main.c        ****         counter--;
  77:main.c        ****         out7seg(counter);
  78:main.c        ****         
  79:main.c        ****         CyDelay(100);
  80:main.c        ****         
  81:main.c        ****         if (Pin_B1_Read() == 0)
  82:main.c        ****         {
  83:main.c        ****             CyDelay(200);
  84:main.c        ****         }
  85:main.c        ****         if (Pin_B2_Read() == 0) {
ARM GAS  C:\Users\Ade0n\AppData\Local\Temp\ccz9akgG.s 			page 7


  86:main.c        ****             counter = 0;
 252              		.loc 1 86 0
 253 0012 0024     		movs	r4, #0
 254              	.LVL22:
 255              	.L17:
  76:main.c        ****         out7seg(counter);
 256              		.loc 1 76 0
 257 0014 013C     		subs	r4, r4, #1
 258              	.LVL23:
 259 0016 24B2     		sxth	r4, r4
 260              	.LVL24:
  77:main.c        ****         
 261              		.loc 1 77 0
 262 0018 2000     		movs	r0, r4
 263 001a FFF7FEFF 		bl	out7seg
 264              	.LVL25:
  79:main.c        ****         
 265              		.loc 1 79 0
 266 001e 6420     		movs	r0, #100
 267 0020 FFF7FEFF 		bl	CyDelay
 268              	.LVL26:
  81:main.c        ****         {
 269              		.loc 1 81 0
 270 0024 FFF7FEFF 		bl	Pin_B1_Read
 271              	.LVL27:
 272 0028 0028     		cmp	r0, #0
 273 002a 02D1     		bne	.L18
  83:main.c        ****         }
 274              		.loc 1 83 0
 275 002c C830     		adds	r0, r0, #200
 276 002e FFF7FEFF 		bl	CyDelay
 277              	.LVL28:
 278              	.L18:
  85:main.c        ****             counter = 0;
 279              		.loc 1 85 0
 280 0032 FFF7FEFF 		bl	Pin_B2_Read
 281              	.LVL29:
 282 0036 0028     		cmp	r0, #0
 283 0038 EBD0     		beq	.L21
 284 003a EBE7     		b	.L17
 285              	.L23:
 286              		.align	2
 287              	.L22:
 288 003c 00000000 		.word	isr_100Hz
 289              		.cfi_endproc
 290              	.LFE37:
 291              		.size	main, .-main
 292              		.global	KOD7
 293              		.global	indyk
 294              		.section	.rodata
 295              		.align	2
 296              		.set	.LANCHOR2,. + 0
 297              		.type	KOD7, %object
 298              		.size	KOD7, 10
 299              	KOD7:
 300 0000 03       		.byte	3
 301 0001 9F       		.byte	-97
ARM GAS  C:\Users\Ade0n\AppData\Local\Temp\ccz9akgG.s 			page 8


 302 0002 25       		.byte	37
 303 0003 0D       		.byte	13
 304 0004 99       		.byte	-103
 305 0005 49       		.byte	73
 306 0006 41       		.byte	65
 307 0007 1F       		.byte	31
 308 0008 01       		.byte	1
 309 0009 09       		.byte	9
 310              		.data
 311              		.align	2
 312              		.set	.LANCHOR0,. + 0
 313              		.type	indyk, %object
 314              		.size	indyk, 8
 315              	indyk:
 316 0000 FF10     		.short	4351
 317 0002 FF20     		.short	8447
 318 0004 FF40     		.short	16639
 319 0006 FF80     		.short	-32513
 320              		.bss
 321              		.set	.LANCHOR1,. + 0
 322              		.type	N_indyk.5524, %object
 323              		.size	N_indyk.5524, 1
 324              	N_indyk.5524:
 325 0000 00       		.space	1
 326              		.text
 327              	.Letext0:
 328              		.file 2 "Generated_Source\\PSoC4/cytypes.h"
 329              		.file 3 "Generated_Source\\PSoC4/SPIM.h"
 330              		.file 4 "Generated_Source\\PSoC4/isr_100Hz.h"
 331              		.file 5 "Generated_Source\\PSoC4/CyLib.h"
 332              		.file 6 "Generated_Source\\PSoC4/Pin_B1.h"
 333              		.file 7 "Generated_Source\\PSoC4/Pin_B2.h"